; Function Attrs: nounwind uwtable
define internal i32 @spl_ptr_pqueue_elem_cmp(ptr noundef %0, ptr noundef %1, ptr noundef readonly %2) #0 {
  %4 = alloca %struct._zval_struct, align 8
  %5 = getelementptr inbounds i8, ptr %0, i64 16
  %6 = getelementptr inbounds i8, ptr %1, i64 16
  %7 = load ptr, ptr getelementptr inbounds (%struct._zend_executor_globals, ptr @executor_globals, i64 0, i32 50), align 8
  %.not = icmp eq ptr %7, null
  br i1 %.not, label %8, label %33

8:                                                ; preds = %3
  %.not14 = icmp eq ptr %2, null
  br i1 %.not14, label %31, label %9

9:                                                ; preds = %8
  %10 = load ptr, ptr %2, align 8
  %11 = getelementptr inbounds i8, ptr %10, i64 -16
  %12 = load ptr, ptr %11, align 8
  %.not15 = icmp eq ptr %12, null
  br i1 %.not15, label %31, label %13

13:                                               ; preds = %9
  call void @llvm.lifetime.start.p0(i64 16, ptr nonnull %4)
  %14 = getelementptr inbounds i8, ptr %10, i64 16
  %15 = load ptr, ptr %14, align 8
  %16 = call ptr @zend_call_method(ptr noundef nonnull %10, ptr noundef %15, ptr noundef nonnull %11, ptr noundef nonnull @.str.6, i64 noundef 7, ptr noundef nonnull %4, i32 noundef 2, ptr noundef nonnull %5, ptr noundef nonnull %6) #14
  %17 = load ptr, ptr getelementptr inbounds (%struct._zend_executor_globals, ptr @executor_globals, i64 0, i32 50), align 8
  %.not.i = icmp eq ptr %17, null
  br i1 %.not.i, label %18, label %spl_ptr_heap_cmp_cb_helper.exit.thread

spl_ptr_heap_cmp_cb_helper.exit.thread:           ; preds = %13
  call void @llvm.lifetime.end.p0(i64 16, ptr nonnull %4)
  br label %33

18:                                               ; preds = %13
  %19 = getelementptr inbounds i8, ptr %4, i64 8
  %20 = load i8, ptr %19, align 8
  %21 = icmp eq i8 %20, 4
  br i1 %21, label %22, label %24

22:                                               ; preds = %18
  %23 = load i64, ptr %4, align 8
  br label %26

24:                                               ; preds = %18
  %25 = call i64 @zval_get_long_func(ptr noundef nonnull %4, i1 noundef zeroext false) #14
  br label %26

26:                                               ; preds = %24, %22
  %27 = phi i64 [ %23, %22 ], [ %25, %24 ]
  call void @zval_ptr_dtor(ptr noundef nonnull %4) #14
  call void @llvm.lifetime.end.p0(i64 16, ptr nonnull %4)
  %.not16 = icmp eq i64 %27, 0
  %28 = icmp slt i64 %27, 0
  %29 = select i1 %28, i32 -1, i32 1
  %30 = select i1 %.not16, i32 0, i32 %29
  br label %33

31:                                               ; preds = %9, %8
  %32 = tail call i32 @zend_compare(ptr noundef nonnull %5, ptr noundef nonnull %6) #14
  br label %33

33:                                               ; preds = %spl_ptr_heap_cmp_cb_helper.exit.thread, %3, %31, %26
  %.0 = phi i32 [ %30, %26 ], [ %32, %31 ], [ 0, %3 ], [ 0, %spl_ptr_heap_cmp_cb_helper.exit.thread ]
  ret i32 %.0
}